; Function Attrs: mustprogress uwtable
define internal void @"_ZN9grpc_core16CallFinalization13FuncFinalizerIZNS_12_GLOBAL__N_121MakeServerCallPromiseEPNS_9TransportENS_8CallArgsESt8functionIFNS_12ArenaPromiseISt10unique_ptrI19grpc_metadata_batchNS_5Arena13PooledDeleterEEEES5_EEE3$_4E3RunEPK20grpc_call_final_info"(ptr nocapture noundef nonnull readonly align 8 dereferenceable(24) %this, ptr noundef %final_info) unnamed_addr #3 align 2 personality ptr @__gxx_personality_v0 {
entry:
  %f_ = getelementptr inbounds i8, ptr %this, i64 16
  %f_.val = load ptr, ptr %f_, align 8
  %add.ptr.i.i.i.i.i.i.i.i = getelementptr inbounds i8, ptr %f_.val, i64 56
  %0 = load ptr, ptr %add.ptr.i.i.i.i.i.i.i.i, align 8
  %cmp.not.i.i.i.i = icmp eq ptr %0, null
  br i1 %cmp.not.i.i.i.i, label %"_ZZN9grpc_core12_GLOBAL__N_121MakeServerCallPromiseEPNS_9TransportENS_8CallArgsESt8functionIFNS_12ArenaPromiseISt10unique_ptrI19grpc_metadata_batchNS_5Arena13PooledDeleterEEEES3_EEENK3$_4clEPK20grpc_call_final_info.exit", label %if.then.i.i.i.i

if.then.i.i.i.i:                                  ; preds = %entry
  %failure_latch.i.i = getelementptr inbounds i8, ptr %f_.val, i64 48
  %1 = load i8, ptr %failure_latch.i.i, align 1
  %2 = and i8 %1, 1
  %tobool.not.i.i.i.i.i = icmp eq i8 %2, 0
  br i1 %tobool.not.i.i.i.i.i, label %"_ZZN9grpc_core12_GLOBAL__N_121MakeServerCallPromiseEPNS_9TransportENS_8CallArgsESt8functionIFNS_12ArenaPromiseISt10unique_ptrI19grpc_metadata_batchNS_5Arena13PooledDeleterEEEES3_EEENK3$_4clEPK20grpc_call_final_info.exit", label %delete.notnull.i.i.i.i.i

delete.notnull.i.i.i.i.i:                         ; preds = %if.then.i.i.i.i
  tail call void @_ZN9grpc_core11MetadataMapI19grpc_metadata_batchJNS_16HttpPathMetadataENS_21HttpAuthorityMetadataENS_18HttpMethodMetadataENS_18HttpStatusMetadataENS_18HttpSchemeMetadataENS_19ContentTypeMetadataENS_10TeMetadataENS_20GrpcEncodingMetadataENS_27GrpcInternalEncodingRequestENS_26GrpcAcceptEncodingMetadataENS_18GrpcStatusMetadataENS_19GrpcTimeoutMetadataENS_31GrpcPreviousRpcAttemptsMetadataENS_27GrpcRetryPushbackMsMetadataENS_17UserAgentMetadataENS_19GrpcMessageMetadataENS_12HostMetadataENS_30EndpointLoadMetricsBinMetadataENS_26GrpcServerStatsBinMetadataENS_20GrpcTraceBinMetadataENS_19GrpcTagsBinMetadataENS_25GrpcLbClientStatsMetadataENS_17LbCostBinMetadataENS_15LbTokenMetadataENS_18XEnvoyPeerMetadataENS_22GrpcStreamNetworkStateENS_10PeerStringENS_17GrpcStatusContextENS_18GrpcStatusFromWireENS_20GrpcCallWasCancelledENS_12WaitForReadyENS_16GrpcTrailersOnlyENS_10GrpcTarPitENS_20GrpcRegisteredMethodEEED2Ev(ptr noundef nonnull align 8 dereferenceable(568) %0) #23
  tail call void @_ZdlPv(ptr noundef nonnull %0) #26
  br label %"_ZZN9grpc_core12_GLOBAL__N_121MakeServerCallPromiseEPNS_9TransportENS_8CallArgsESt8functionIFNS_12ArenaPromiseISt10unique_ptrI19grpc_metadata_batchNS_5Arena13PooledDeleterEEEES3_EEENK3$_4clEPK20grpc_call_final_info.exit"

"_ZZN9grpc_core12_GLOBAL__N_121MakeServerCallPromiseEPNS_9TransportENS_8CallArgsESt8functionIFNS_12ArenaPromiseISt10unique_ptrI19grpc_metadata_batchNS_5Arena13PooledDeleterEEEES3_EEENK3$_4clEPK20grpc_call_final_info.exit": ; preds = %entry, %if.then.i.i.i.i, %delete.notnull.i.i.i.i.i
  store ptr null, ptr %add.ptr.i.i.i.i.i.i.i.i, align 8
  %server_initial_metadata.i.i = getelementptr inbounds i8, ptr %f_.val, i64 32
  %receiver.i.i.i = getelementptr inbounds i8, ptr %f_.val, i64 40
  tail call void @_ZN9grpc_core12PipeReceiverISt10unique_ptrI19grpc_metadata_batchNS_5Arena13PooledDeleterEEED2Ev(ptr noundef nonnull align 8 dereferenceable(8) %receiver.i.i.i) #23
  tail call void @_ZN9grpc_core10PipeSenderISt10unique_ptrI19grpc_metadata_batchNS_5Arena13PooledDeleterEEED2Ev(ptr noundef nonnull align 8 dereferenceable(8) %server_initial_metadata.i.i) #23
  %client_to_server.i.i = getelementptr inbounds i8, ptr %f_.val, i64 16
  %receiver.i1.i.i = getelementptr inbounds i8, ptr %f_.val, i64 24
  tail call void @_ZN9grpc_core12PipeReceiverISt10unique_ptrINS_7MessageENS_5Arena13PooledDeleterEEED2Ev(ptr noundef nonnull align 8 dereferenceable(8) %receiver.i1.i.i) #23
  tail call void @_ZN9grpc_core10PipeSenderISt10unique_ptrINS_7MessageENS_5Arena13PooledDeleterEEED2Ev(ptr noundef nonnull align 8 dereferenceable(8) %client_to_server.i.i) #23
  %receiver.i2.i.i = getelementptr inbounds i8, ptr %f_.val, i64 8
  tail call void @_ZN9grpc_core12PipeReceiverISt10unique_ptrINS_7MessageENS_5Arena13PooledDeleterEEED2Ev(ptr noundef nonnull align 8 dereferenceable(8) %receiver.i2.i.i) #23
  tail call void @_ZN9grpc_core10PipeSenderISt10unique_ptrINS_7MessageENS_5Arena13PooledDeleterEEED2Ev(ptr noundef nonnull align 8 dereferenceable(8) %f_.val) #23
  %next_ = getelementptr inbounds i8, ptr %this, i64 8
  %3 = load ptr, ptr %next_, align 8
  %cmp.not = icmp eq ptr %3, null
  br i1 %cmp.not, label %if.end, label %if.then

if.then:                                          ; preds = %"_ZZN9grpc_core12_GLOBAL__N_121MakeServerCallPromiseEPNS_9TransportENS_8CallArgsESt8functionIFNS_12ArenaPromiseISt10unique_ptrI19grpc_metadata_batchNS_5Arena13PooledDeleterEEEES3_EEENK3$_4clEPK20grpc_call_final_info.exit"
  %vtable = load ptr, ptr %3, align 8
  %4 = load ptr, ptr %vtable, align 8
  tail call void %4(ptr noundef nonnull align 8 dereferenceable(8) %3, ptr noundef %final_info)
  br label %if.end

if.end:                                           ; preds = %if.then, %"_ZZN9grpc_core12_GLOBAL__N_121MakeServerCallPromiseEPNS_9TransportENS_8CallArgsESt8functionIFNS_12ArenaPromiseISt10unique_ptrI19grpc_metadata_batchNS_5Arena13PooledDeleterEEEES3_EEENK3$_4clEPK20grpc_call_final_info.exit"
  ret void
}